target datalayout = "e-m:e-p270:32:32-p271:32:32-p272:64:64-i64:64-i128:128-f80:128-n8:16:32:64-S128"
target triple = "x86_64-pc-linux-gnu"

%struct.b2Vec2 = type { float, float }
%struct.b2JointArray = type { ptr, i32, i32 }
%struct.b2JointSimArray = type { ptr, i32, i32 }
%struct.b2JointId = type { i32, i16, i16 }
%struct.b2World = type { %struct.b2ArenaAllocator, %struct.b2BroadPhase, %struct.b2ConstraintGraph, %struct.b2IdPool, %struct.b2BodyArray, %struct.b2IdPool, %struct.b2SolverSetArray, %struct.b2IdPool, %struct.b2JointArray, %struct.b2IdPool, %struct.b2ContactArray, %struct.b2IdPool, %struct.b2IslandArray, %struct.b2IdPool, %struct.b2IdPool, %struct.b2ShapeArray, %struct.b2ChainShapeArray, %struct.b2SensorArray, %struct.b2TaskContextArray, %struct.b2SensorTaskContextArray, %struct.b2BodyMoveEventArray, %struct.b2SensorBeginTouchEventArray, %struct.b2ContactBeginTouchEventArray, [2 x %struct.b2SensorEndTouchEventArray], [2 x %struct.b2ContactEndTouchEventArray], i32, %struct.b2ContactHitEventArray, %struct.b2BitSet, %struct.b2BitSet, %struct.b2BitSet, i64, i32, %struct.b2Vec2, float, float, float, float, float, float, float, float, ptr, ptr, i16, %struct.b2Profile, ptr, ptr, ptr, ptr, i32, ptr, ptr, ptr, ptr, ptr, float, i32, i32, i16, i8, i8, i8, i8, i8, i8 }
%struct.b2ArenaAllocator = type { ptr, i32, i32, i32, i32, %struct.b2ArenaEntryArray }
%struct.b2ArenaEntryArray = type { ptr, i32, i32 }
%struct.b2BroadPhase = type { [3 x %struct.b2DynamicTree], i32, %struct.b2HashSet, %struct.b2IntArray, ptr, ptr, i32, %struct.b2AtomicInt, %struct.b2HashSet }
%struct.b2DynamicTree = type { ptr, i32, i32, i32, i32, i32, ptr, ptr, ptr, ptr, i32 }
%struct.b2IntArray = type { ptr, i32, i32 }
%struct.b2AtomicInt = type { i32 }
%struct.b2HashSet = type { ptr, i32, i32 }
%struct.b2ConstraintGraph = type { [12 x %struct.b2GraphColor] }
%struct.b2GraphColor = type { %struct.b2BitSet, %struct.b2ContactSimArray, %struct.b2JointSimArray, %union.anon }
%struct.b2ContactSimArray = type { ptr, i32, i32 }
%union.anon = type { ptr }
%struct.b2BodyArray = type { ptr, i32, i32 }
%struct.b2SolverSetArray = type { ptr, i32, i32 }
%struct.b2ContactArray = type { ptr, i32, i32 }
%struct.b2IslandArray = type { ptr, i32, i32 }
%struct.b2IdPool = type { %struct.b2IntArray, i32 }
%struct.b2ShapeArray = type { ptr, i32, i32 }
%struct.b2ChainShapeArray = type { ptr, i32, i32 }
%struct.b2SensorArray = type { ptr, i32, i32 }
%struct.b2TaskContextArray = type { ptr, i32, i32 }
%struct.b2SensorTaskContextArray = type { ptr, i32, i32 }
%struct.b2BodyMoveEventArray = type { ptr, i32, i32 }
%struct.b2SensorBeginTouchEventArray = type { ptr, i32, i32 }
%struct.b2ContactBeginTouchEventArray = type { ptr, i32, i32 }
%struct.b2SensorEndTouchEventArray = type { ptr, i32, i32 }
%struct.b2ContactEndTouchEventArray = type { ptr, i32, i32 }
%struct.b2ContactHitEventArray = type { ptr, i32, i32 }
%struct.b2BitSet = type { ptr, i32, i32 }
%struct.b2Profile = type { float, float, float, float, float, float, float, float, float, float, float, float, float, float, float, float, float, float, float, float, float, float }
%struct.b2Joint = type { ptr, i32, i32, i32, [2 x %struct.b2JointEdge], i32, i32, i32, i32, float, i32, i16, i8, i8 }
%struct.b2JointEdge = type { i32, i32, i32 }

; Function Attrs: inlinehint nounwind uwtable
define internal ptr @b2JointArray_Get(ptr noundef %0, i32 noundef %1) #5 {
  %3 = alloca ptr, align 8
  %4 = alloca i32, align 4
  store ptr %0, ptr %3, align 8, !tbaa !12
  store i32 %1, ptr %4, align 4, !tbaa !3
  %5 = load ptr, ptr %3, align 8, !tbaa !12
  %6 = getelementptr inbounds nuw %struct.b2JointArray, ptr %5, i32 0, i32 0
  %7 = load ptr, ptr %6, align 8, !tbaa !7
  %8 = load i32, ptr %4, align 4, !tbaa !3
  %9 = sext i32 %8 to i64
  %10 = getelementptr inbounds %struct.b2Joint, ptr %7, i64 %9
  ret ptr %10
}

; Function Attrs: nounwind uwtable
define hidden ptr @b2GetJointFullId(ptr noundef %0, i64 %1) #0 {
  %3 = alloca %struct.b2JointId, align 4
  %4 = alloca ptr, align 8
  %5 = alloca i32, align 4
  %6 = alloca ptr, align 8
  store i64 %1, ptr %3, align 4
  store ptr %0, ptr %4, align 8, !tbaa !60
  call void @llvm.lifetime.start.p0(i64 4, ptr %5) #9
  %7 = getelementptr inbounds nuw %struct.b2JointId, ptr %3, i32 0, i32 0
  %8 = load i32, ptr %7, align 4, !tbaa !62
  %9 = sub nsw i32 %8, 1
  store i32 %9, ptr %5, align 4, !tbaa !3
  call void @llvm.lifetime.start.p0(i64 8, ptr %6) #9
  %10 = load ptr, ptr %4, align 8, !tbaa !60
  %11 = getelementptr inbounds nuw %struct.b2World, ptr %10, i32 0, i32 8
  %12 = load i32, ptr %5, align 4, !tbaa !3
  %13 = call ptr @b2JointArray_Get(ptr noundef %11, i32 noundef %12)
  store ptr %13, ptr %6, align 8, !tbaa !64
  %14 = load ptr, ptr %6, align 8, !tbaa !64
  call void @llvm.lifetime.end.p0(i64 8, ptr %6) #9
  call void @llvm.lifetime.end.p0(i64 4, ptr %5) #9
  ret ptr %14
}

; Function Attrs: nounwind uwtable
define void @b2DestroyJoint(i64 %0) #0 {
  %2 = alloca %struct.b2JointId, align 4
  %3 = alloca ptr, align 8
  %4 = alloca i32, align 4
  %5 = alloca ptr, align 8
  store i64 %0, ptr %2, align 4
  call void @llvm.lifetime.start.p0(i64 8, ptr %3) #9
  %6 = getelementptr inbounds nuw %struct.b2JointId, ptr %2, i32 0, i32 1
  %7 = load i16, ptr %6, align 4, !tbaa !75
  %8 = zext i16 %7 to i32
  %9 = call ptr @b2GetWorld(i32 noundef %8)
  store ptr %9, ptr %3, align 8, !tbaa !60
  %10 = load ptr, ptr %3, align 8, !tbaa !60
  %11 = getelementptr inbounds nuw %struct.b2World, ptr %10, i32 0, i32 60
  %12 = load i8, ptr %11, align 1, !tbaa !76, !range !119, !noundef !120
  %13 = trunc i8 %12 to i1
  br i1 %13, label %14, label %15

14:                                               ; preds = %1
  store i32 1, ptr %4, align 4
  br label %21

15:                                               ; preds = %1
  call void @llvm.lifetime.start.p0(i64 8, ptr %5) #9
  %16 = load ptr, ptr %3, align 8, !tbaa !60
  %17 = load i64, ptr %2, align 4
  %18 = call ptr @b2GetJointFullId(ptr noundef %16, i64 %17)
  store ptr %18, ptr %5, align 8, !tbaa !64
  %19 = load ptr, ptr %3, align 8, !tbaa !60
  %20 = load ptr, ptr %5, align 8, !tbaa !64
  call void @b2DestroyJointInternal(ptr noundef %19, ptr noundef %20, i1 noundef zeroext true)
  call void @llvm.lifetime.end.p0(i64 8, ptr %5) #9
  store i32 0, ptr %4, align 4
  br label %21

21:                                               ; preds = %15, %14
  call void @llvm.lifetime.end.p0(i64 8, ptr %3) #9
  %22 = load i32, ptr %4, align 4
  switch i32 %22, label %24 [
    i32 0, label %23
    i32 1, label %23
  ]

23:                                               ; preds = %21, %21
  ret void

24:                                               ; preds = %21
  unreachable
}