; Function Attrs: nounwind uwtable
define void @b2DestroyJoint(i64 %0) local_unnamed_addr #0 {
  %.sroa.2.0.extract.shift = lshr i64 %0, 32
  %2 = trunc nuw i64 %.sroa.2.0.extract.shift to i32
  %3 = and i32 %2, 65535
  %4 = tail call ptr @b2GetWorld(i32 noundef %3) #10
  %5 = getelementptr inbounds nuw i8, ptr %4, i64 1783
  %6 = load i8, ptr %5, align 1, !tbaa !60, !range !103, !noundef !104
  %7 = trunc nuw i8 %6 to i1
  br i1 %7, label %13, label %8

8:                                                ; preds = %1
  %9 = getelementptr inbounds nuw i8, ptr %4, i64 1112
  %.val.i = load ptr, ptr %9, align 8, !tbaa !10
  %10 = shl i64 %0, 32
  %sext.i = add i64 %10, -4294967296
  %11 = ashr exact i64 %sext.i, 32
  %12 = getelementptr inbounds %struct.b2Joint, ptr %.val.i, i64 %11
  tail call void @b2DestroyJointInternal(ptr noundef nonnull %4, ptr noundef %12, i1 noundef zeroext true)
  br label %13

13:                                               ; preds = %1, %8
  ret void
}